target datalayout = "e-m:e-p270:32:32-p271:32:32-p272:64:64-i64:64-i128:128-f80:128-n8:16:32:64-S128"
target triple = "x86_64-pc-linux-gnu"

@.str.5 = private unnamed_addr constant [27 x i8] c"../openssl/test/rsa_test.c\00", align 1
@load_key.e = internal constant [3 x i8] c"\01\00\01", align 1
@.str.28 = private unnamed_addr constant [16 x i8] c"rsa = RSA_new()\00", align 1
@.str.29 = private unnamed_addr constant [83 x i8] c"pn == NULL || pe == NULL || (priv && pd == NULL) || !RSA_set0_key(rsa, pn, pe, pd)\00", align 1

; Function Attrs: nounwind uwtable
define internal ptr @load_key(i32 noundef %0) #0 {
  %2 = alloca ptr, align 8
  %3 = alloca i32, align 4
  %4 = alloca ptr, align 8
  %5 = alloca ptr, align 8
  %6 = alloca ptr, align 8
  %7 = alloca ptr, align 8
  %8 = alloca i32, align 4
  store i32 %0, ptr %3, align 4, !tbaa !4
  call void @llvm.lifetime.start.p0(i64 8, ptr %4) #5
  store ptr null, ptr %4, align 8, !tbaa !8
  call void @llvm.lifetime.start.p0(i64 8, ptr %5) #5
  store ptr null, ptr %5, align 8, !tbaa !24
  call void @llvm.lifetime.start.p0(i64 8, ptr %6) #5
  store ptr null, ptr %6, align 8, !tbaa !24
  call void @llvm.lifetime.start.p0(i64 8, ptr %7) #5
  store ptr null, ptr %7, align 8, !tbaa !24
  %9 = call ptr @RSA_new()
  store ptr %9, ptr %4, align 8, !tbaa !8
  %10 = call i32 @test_ptr(ptr noundef @.str.5, i32 noundef 559, ptr noundef @.str.28, ptr noundef %9)
  %11 = icmp ne i32 %10, 0
  br i1 %11, label %13, label %12

12:                                               ; preds = %1
  store ptr null, ptr %2, align 8
  store i32 1, ptr %8, align 4
  br label %54

13:                                               ; preds = %1
  %14 = call ptr @BN_bin2bn(ptr noundef @load_key.n, i32 noundef 257, ptr noundef null)
  store ptr %14, ptr %5, align 8, !tbaa !24
  %15 = call ptr @BN_bin2bn(ptr noundef @load_key.e, i32 noundef 3, ptr noundef null)
  store ptr %15, ptr %6, align 8, !tbaa !24
  %16 = load i32, ptr %3, align 4, !tbaa !4
  %17 = icmp ne i32 %16, 0
  br i1 %17, label %18, label %20

18:                                               ; preds = %13
  %19 = call ptr @BN_bin2bn(ptr noundef @load_key.d, i32 noundef 256, ptr noundef null)
  store ptr %19, ptr %7, align 8, !tbaa !24
  br label %20

20:                                               ; preds = %18, %13
  %21 = load ptr, ptr %5, align 8, !tbaa !24
  %22 = icmp eq ptr %21, null
  br i1 %22, label %40, label %23

23:                                               ; preds = %20
  %24 = load ptr, ptr %6, align 8, !tbaa !24
  %25 = icmp eq ptr %24, null
  br i1 %25, label %40, label %26

26:                                               ; preds = %23
  %27 = load i32, ptr %3, align 4, !tbaa !4
  %28 = icmp ne i32 %27, 0
  br i1 %28, label %29, label %32

29:                                               ; preds = %26
  %30 = load ptr, ptr %7, align 8, !tbaa !24
  %31 = icmp eq ptr %30, null
  br i1 %31, label %40, label %32

32:                                               ; preds = %29, %26
  %33 = load ptr, ptr %4, align 8, !tbaa !8
  %34 = load ptr, ptr %5, align 8, !tbaa !24
  %35 = load ptr, ptr %6, align 8, !tbaa !24
  %36 = load ptr, ptr %7, align 8, !tbaa !24
  %37 = call i32 @RSA_set0_key(ptr noundef %33, ptr noundef %34, ptr noundef %35, ptr noundef %36)
  %38 = icmp ne i32 %37, 0
  %39 = xor i1 %38, true
  br label %40

40:                                               ; preds = %32, %29, %23, %20
  %41 = phi i1 [ true, %29 ], [ true, %23 ], [ true, %20 ], [ %39, %32 ]
  %42 = zext i1 %41 to i32
  %43 = icmp ne i32 %42, 0
  %44 = zext i1 %43 to i32
  %45 = call i32 @test_false(ptr noundef @.str.5, i32 noundef 568, ptr noundef @.str.29, i32 noundef %44)
  %46 = icmp ne i32 %45, 0
  br i1 %46, label %52, label %47

47:                                               ; preds = %40
  %48 = load ptr, ptr %5, align 8, !tbaa !24
  call void @BN_free(ptr noundef %48)
  %49 = load ptr, ptr %6, align 8, !tbaa !24
  call void @BN_free(ptr noundef %49)
  %50 = load ptr, ptr %7, align 8, !tbaa !24
  call void @BN_free(ptr noundef %50)
  %51 = load ptr, ptr %4, align 8, !tbaa !8
  call void @RSA_free(ptr noundef %51)
  store ptr null, ptr %4, align 8, !tbaa !8
  br label %52

52:                                               ; preds = %47, %40
  %53 = load ptr, ptr %4, align 8, !tbaa !8
  store ptr %53, ptr %2, align 8
  store i32 1, ptr %8, align 4
  br label %54

54:                                               ; preds = %52, %12
  call void @llvm.lifetime.end.p0(i64 8, ptr %7) #5
  call void @llvm.lifetime.end.p0(i64 8, ptr %6) #5
  call void @llvm.lifetime.end.p0(i64 8, ptr %5) #5
  call void @llvm.lifetime.end.p0(i64 8, ptr %4) #5
  %55 = load ptr, ptr %2, align 8
  ret ptr %55
}