; Function Attrs: nounwind uwtable
define internal fastcc noundef ptr @load_key(i32 noundef range(i32 0, 2) %0) unnamed_addr #0 {
  %2 = tail call ptr @RSA_new() #5
  %3 = tail call i32 @test_ptr(ptr noundef nonnull @.str.5, i32 noundef 559, ptr noundef nonnull @.str.28, ptr noundef %2) #5
  %.not = icmp eq i32 %3, 0
  br i1 %.not, label %21, label %4

4:                                                ; preds = %1
  %5 = tail call ptr @BN_bin2bn(ptr noundef nonnull @load_key.n, i32 noundef 257, ptr noundef null) #5
  %6 = tail call ptr @BN_bin2bn(ptr noundef nonnull @__const.test_EVP_rsa_legacy_key.e_data, i32 noundef 3, ptr noundef null) #5
  %7 = icmp ne i32 %0, 0
  br i1 %7, label %8, label %10

8:                                                ; preds = %4
  %9 = tail call ptr @BN_bin2bn(ptr noundef nonnull @load_key.d, i32 noundef 256, ptr noundef null) #5
  br label %10

10:                                               ; preds = %8, %4
  %.0 = phi ptr [ %9, %8 ], [ null, %4 ]
  %11 = icmp eq ptr %5, null
  %12 = icmp eq ptr %6, null
  %or.cond = select i1 %11, i1 true, i1 %12
  %13 = icmp eq ptr %.0, null
  %or.cond3 = select i1 %7, i1 %13, i1 false
  %or.cond23 = select i1 %or.cond, i1 true, i1 %or.cond3
  br i1 %or.cond23, label %17, label %14

14:                                               ; preds = %10
  %15 = tail call i32 @RSA_set0_key(ptr noundef %2, ptr noundef nonnull %5, ptr noundef nonnull %6, ptr noundef %.0) #5
  %.not21 = icmp eq i32 %15, 0
  %16 = zext i1 %.not21 to i32
  br label %17

17:                                               ; preds = %14, %10
  %18 = phi i32 [ 1, %10 ], [ %16, %14 ]
  %19 = tail call i32 @test_false(ptr noundef nonnull @.str.5, i32 noundef 568, ptr noundef nonnull @.str.29, i32 noundef %18) #5
  %.not22 = icmp eq i32 %19, 0
  br i1 %.not22, label %20, label %21

20:                                               ; preds = %17
  tail call void @BN_free(ptr noundef %5) #5
  tail call void @BN_free(ptr noundef %6) #5
  tail call void @BN_free(ptr noundef %.0) #5
  tail call void @RSA_free(ptr noundef %2) #5
  br label %21

21:                                               ; preds = %17, %20, %1
  %.018 = phi ptr [ null, %1 ], [ %2, %17 ], [ null, %20 ]
  ret ptr %.018
}